; Function Attrs: mustprogress nofree norecurse nosync nounwind willreturn memory(read, argmem: readwrite, inaccessiblemem: none) uwtable
define void @stbtt_GetGlyphHMetrics(ptr noundef readonly captures(none) %0, i32 noundef %1, ptr noundef writeonly captures(address_is_null) %2, ptr noundef writeonly captures(address_is_null) %3) local_unnamed_addr #0 {
  %5 = getelementptr inbounds nuw i8, ptr %0, i64 8
  %6 = load ptr, ptr %5, align 8, !tbaa !23
  %7 = getelementptr inbounds nuw i8, ptr %0, i64 36
  %8 = load i32, ptr %7, align 4, !tbaa !28
  %9 = sext i32 %8 to i64
  %10 = getelementptr inbounds i8, ptr %6, i64 %9
  %11 = getelementptr inbounds nuw i8, ptr %10, i64 34
  %12 = load i8, ptr %11, align 1, !tbaa !12
  %13 = zext i8 %12 to i32
  %14 = shl nuw nsw i32 %13, 8
  %15 = getelementptr inbounds nuw i8, ptr %10, i64 35
  %16 = load i8, ptr %15, align 1, !tbaa !12
  %17 = zext i8 %16 to i32
  %18 = or disjoint i32 %14, %17
  %19 = icmp slt i32 %1, %18
  %.not31 = icmp eq ptr %2, null
  br i1 %19, label %20, label %48

20:                                               ; preds = %4
  br i1 %.not31, label %37, label %21

21:                                               ; preds = %20
  %22 = getelementptr inbounds nuw i8, ptr %0, i64 40
  %23 = load i32, ptr %22, align 8, !tbaa !29
  %24 = sext i32 %23 to i64
  %25 = getelementptr inbounds i8, ptr %6, i64 %24
  %26 = shl nsw i32 %1, 2
  %27 = sext i32 %26 to i64
  %28 = getelementptr inbounds i8, ptr %25, i64 %27
  %29 = load i8, ptr %28, align 1, !tbaa !12
  %30 = zext i8 %29 to i16
  %31 = shl nuw i16 %30, 8
  %32 = getelementptr inbounds nuw i8, ptr %28, i64 1
  %33 = load i8, ptr %32, align 1, !tbaa !12
  %34 = zext i8 %33 to i16
  %35 = or disjoint i16 %31, %34
  %36 = sext i16 %35 to i32
  store i32 %36, ptr %2, align 4, !tbaa !17
  br label %37

37:                                               ; preds = %21, %20
  %.not32 = icmp eq ptr %3, null
  br i1 %.not32, label %83, label %38

38:                                               ; preds = %37
  %39 = getelementptr inbounds nuw i8, ptr %0, i64 40
  %40 = load i32, ptr %39, align 8, !tbaa !29
  %41 = sext i32 %40 to i64
  %42 = getelementptr inbounds i8, ptr %6, i64 %41
  %43 = shl nsw i32 %1, 2
  %44 = sext i32 %43 to i64
  %45 = getelementptr inbounds i8, ptr %42, i64 %44
  %46 = getelementptr inbounds nuw i8, ptr %45, i64 2
  %47 = getelementptr inbounds nuw i8, ptr %45, i64 3
  br label %.sink.split

48:                                               ; preds = %4
  br i1 %.not31, label %66, label %49

49:                                               ; preds = %48
  %50 = getelementptr inbounds nuw i8, ptr %0, i64 40
  %51 = load i32, ptr %50, align 8, !tbaa !29
  %52 = sext i32 %51 to i64
  %53 = getelementptr inbounds i8, ptr %6, i64 %52
  %54 = shl nuw nsw i32 %18, 2
  %55 = zext nneg i32 %54 to i64
  %56 = getelementptr i8, ptr %53, i64 %55
  %57 = getelementptr i8, ptr %56, i64 -4
  %58 = load i8, ptr %57, align 1, !tbaa !12
  %59 = zext i8 %58 to i16
  %60 = shl nuw i16 %59, 8
  %61 = getelementptr i8, ptr %56, i64 -3
  %62 = load i8, ptr %61, align 1, !tbaa !12
  %63 = zext i8 %62 to i16
  %64 = or disjoint i16 %60, %63
  %65 = sext i16 %64 to i32
  store i32 %65, ptr %2, align 4, !tbaa !17
  br label %66

66:                                               ; preds = %49, %48
  %.not30 = icmp eq ptr %3, null
  br i1 %.not30, label %83, label %67

67:                                               ; preds = %66
  %68 = getelementptr inbounds nuw i8, ptr %0, i64 40
  %69 = load i32, ptr %68, align 8, !tbaa !29
  %70 = sext i32 %69 to i64
  %71 = getelementptr inbounds i8, ptr %6, i64 %70
  %72 = shl nuw nsw i32 %18, 2
  %73 = zext nneg i32 %72 to i64
  %74 = getelementptr inbounds nuw i8, ptr %71, i64 %73
  %75 = sub nsw i32 %1, %18
  %76 = shl nsw i32 %75, 1
  %77 = sext i32 %76 to i64
  %78 = getelementptr inbounds i8, ptr %74, i64 %77
  %79 = getelementptr inbounds nuw i8, ptr %78, i64 1
  br label %.sink.split

.sink.split:                                      ; preds = %38, %67
  %.sink35.in = phi ptr [ %79, %67 ], [ %47, %38 ]
  %.sink.in.in.in = phi ptr [ %78, %67 ], [ %46, %38 ]
  %.sink.in.in = load i8, ptr %.sink.in.in.in, align 1, !tbaa !12
  %.sink.in = zext i8 %.sink.in.in to i16
  %.sink = shl nuw i16 %.sink.in, 8
  %.sink35 = load i8, ptr %.sink35.in, align 1, !tbaa !12
  %80 = zext i8 %.sink35 to i16
  %81 = or disjoint i16 %.sink, %80
  %82 = sext i16 %81 to i32
  store i32 %82, ptr %3, align 4, !tbaa !17
  br label %83

83:                                               ; preds = %.sink.split, %66, %37
  ret void
}